; Function Attrs: mustprogress nofree norecurse nosync nounwind willreturn memory(read, argmem: readwrite, inaccessiblemem: none) uwtable
define dso_local noundef ptr @rdbPopulateSaveInfo(ptr noundef writeonly captures(ret: address, provenance) initializes((0, 64)) %0) local_unnamed_addr #20 {
  tail call void @llvm.memcpy.p0.p0.i64(ptr noundef nonnull align 8 dereferenceable(64) %0, ptr noundef nonnull align 8 dereferenceable(64) @__const.rdbPopulateSaveInfo.rsi_init, i64 64, i1 false), !tbaa.struct !272
  %2 = load ptr, ptr getelementptr inbounds nuw (i8, ptr @server, i64 7264), align 8, !tbaa !231
  %3 = icmp eq ptr %2, null
  %4 = load ptr, ptr getelementptr inbounds nuw (i8, ptr @server, i64 7104), align 8
  %5 = icmp ne ptr %4, null
  %or.cond = select i1 %3, i1 %5, i1 false
  br i1 %or.cond, label %6, label %10

6:                                                ; preds = %1
  %7 = load i32, ptr getelementptr inbounds nuw (i8, ptr @server, i64 7096), align 8, !tbaa !273
  %8 = icmp eq i32 %7, -1
  %9 = select i1 %8, i32 0, i32 %7
  br label %.sink.split

10:                                               ; preds = %1
  %11 = load ptr, ptr getelementptr inbounds nuw (i8, ptr @server, i64 7280), align 8, !tbaa !274
  %.not = icmp eq ptr %11, null
  br i1 %.not, label %17, label %12

12:                                               ; preds = %10
  %13 = getelementptr inbounds nuw i8, ptr %11, i64 32
  %14 = load ptr, ptr %13, align 8, !tbaa !275
  %15 = getelementptr inbounds nuw i8, ptr %14, i64 56
  %16 = load i32, ptr %15, align 8, !tbaa !240
  br label %.sink.split

17:                                               ; preds = %10
  %18 = load ptr, ptr getelementptr inbounds nuw (i8, ptr @server, i64 7288), align 8, !tbaa !276
  %.not11 = icmp eq ptr %18, null
  br i1 %.not11, label %24, label %19

19:                                               ; preds = %17
  %20 = getelementptr inbounds nuw i8, ptr %18, i64 32
  %21 = load ptr, ptr %20, align 8, !tbaa !275
  %22 = getelementptr inbounds nuw i8, ptr %21, i64 56
  %23 = load i32, ptr %22, align 8, !tbaa !240
  br label %.sink.split

.sink.split:                                      ; preds = %6, %12, %19
  %.sink = phi i32 [ %23, %19 ], [ %16, %12 ], [ %9, %6 ]
  store i32 %.sink, ptr %0, align 8, !tbaa !149
  br label %24

24:                                               ; preds = %.sink.split, %17
  %.0 = phi ptr [ null, %17 ], [ %0, %.sink.split ]
  ret ptr %.0
}